Certificate:
    Data:
        Version: 3 (0x2)
        Serial Number:
            69:eb:66:e1:2e:3b:1d:35:4c:c6:3a:b0:c2:c9:44:29
    Signature Algorithm: sha256WithRSAEncryption
        Issuer: CN=ChangeMe
        Validity
            Not Before: Mar 12 02:09:19 2025 GMT
            Not After : Mar 10 02:09:19 2035 GMT
        Subject: CN=client
        Subject Public Key Info:
            Public Key Algorithm: rsaEncryption
                Public-Key: (2048 bit)
                Modulus:
                    00:b9:5f:0d:64:2e:4e:82:d2:03:e3:07:40:62:5a:
                    16:3b:70:8b:59:51:aa:07:53:ca:9d:cb:73:34:95:
                    87:e4:11:d5:ba:74:7f:e8:c7:eb:71:05:da:e5:c6:
                    35:ab:ea:a3:f0:98:a3:42:06:50:1e:1d:78:cc:ab:
                    86:ec:db:24:e8:ef:44:a3:d6:b1:ec:23:45:94:36:
                    7e:8a:87:b9:18:70:09:09:55:a5:06:77:d8:54:c0:
                    e2:21:85:18:a8:57:33:39:ac:51:0e:cc:41:3f:34:
                    1b:74:78:31:53:e8:8e:12:98:0d:41:35:52:12:7c:
                    85:e7:5c:d3:f0:0b:1b:b6:bd:82:34:db:ea:f0:dd:
                    e5:3f:04:f3:ad:a5:a0:53:64:ac:61:50:f0:e1:0d:
                    b8:14:78:b7:29:d7:db:73:82:db:13:da:cb:22:44:
                    b6:cd:b8:5f:c8:b1:75:ce:7b:83:12:bb:58:a6:5a:
                    65:f8:1d:0b:68:5f:3a:4f:6c:03:6d:8e:e0:c9:47:
                    89:9a:f6:69:b7:59:91:f2:96:ab:37:ac:a5:0c:4a:
                    97:86:54:e5:58:fc:d3:40:42:18:e8:7e:f5:f6:c5:
                    b0:a5:2c:cc:ca:9b:32:e5:dd:b1:18:0a:58:22:d7:
                    32:9d:a1:22:a7:40:55:03:d3:69:62:e3:70:89:6f:
                    6d:f5
                Exponent: 65537 (0x10001)
        X509v3 extensions:
            X509v3 Basic Constraints: 
                CA:FALSE
            X509v3 Subject Key Identifier: 
                2A:78:BA:04:0C:62:CD:5C:AC:B9:CC:7F:B4:9C:49:F2:CE:93:AA:C8
            X509v3 Authority Key Identifier: 
                keyid:28:A1:90:B2:8B:E2:D6:AC:5A:54:F5:00:53:2E:44:5B:C4:15:6D:79
                DirName:/CN=ChangeMe
                serial:F8:03:6A:21:E3:B0:87:99

            X509v3 Extended Key Usage: 
                TLS Web Client Authentication
            X509v3 Key Usage: 
                Digital Signature
    Signature Algorithm: sha256WithRSAEncryption
         1b:13:cd:2b:6c:de:45:63:73:64:e8:a5:ce:b4:79:69:8c:16:
         ad:a8:7b:4c:8a:b8:4f:53:97:24:65:db:91:6c:cf:46:06:2b:
         5e:8e:f3:13:9e:f0:ce:85:5a:af:7e:66:6d:44:38:9b:93:1b:
         d1:d0:3e:08:e5:8c:bb:d8:28:20:84:49:25:b2:0c:94:02:8d:
         41:5f:4d:b3:d4:28:08:d7:6d:e9:9e:66:8a:b0:7a:19:77:77:
         66:b6:6d:38:91:12:47:20:d9:f6:e0:2c:6d:47:1a:f5:f7:7e:
         2e:4c:2d:2b:d6:33:a1:3a:a5:09:2b:7d:44:86:4f:6e:b8:3b:
         0f:ae:2e:6b:cd:9d:60:46:e2:53:b6:cd:b0:21:0d:17:25:0a:
         8a:40:a2:26:df:93:12:f6:35:7c:bb:4b:5d:19:dd:1c:80:dd:
         5b:a3:5e:31:34:c1:4f:16:1f:10:93:ce:5a:54:3a:3d:a2:f4:
         dc:87:75:b3:d4:e6:8a:5c:c4:85:e8:c0:59:bd:f9:b0:8d:48:
         c3:45:ed:f2:a3:cf:ee:78:45:d1:37:0f:89:db:3a:bb:0e:b2:
         71:b2:6b:cb:87:11:d7:7a:18:52:a0:90:1a:2f:df:75:7c:f5:
         62:a2:a6:ee:3e:31:4e:b6:b4:87:c0:73:59:5a:c6:1d:84:65:
         0d:5b:7e:a3
-----BEGIN CERTIFICATE-----
MIIDQzCCAiugAwIBAgIQaetm4S47HTVMxjqwwslEKTANBgkqhkiG9w0BAQsFADAT
MREwDwYDVQQDDAhDaGFuZ2VNZTAeFw0yNTAzMTIwMjA5MTlaFw0zNTAzMTAwMjA5
MTlaMBExDzANBgNVBAMMBmNsaWVudDCCASIwDQYJKoZIhvcNAQEBBQADggEPADCC
AQoCggEBALlfDWQuToLSA+MHQGJaFjtwi1lRqgdTyp3LczSVh+QR1bp0f+jH63EF
2uXGNavqo/CYo0IGUB4deMyrhuzbJOjvRKPWsewjRZQ2foqHuRhwCQlVpQZ32FTA
4iGFGKhXMzmsUQ7MQT80G3R4MVPojhKYDUE1UhJ8hedc0/ALG7a9gjTb6vDd5T8E
862loFNkrGFQ8OENuBR4tynX23OC2xPayyJEts24X8ixdc57gxK7WKZaZfgdC2hf
Ok9sA22O4MlHiZr2abdZkfKWqzespQxKl4ZU5Vj800BCGOh+9fbFsKUszMqbMuXd
sRgKWCLXMp2hIqdAVQPTaWLjcIlvbfUCAwEAAaOBlDCBkTAJBgNVHRMEAjAAMB0G
A1UdDgQWBBQqeLoEDGLNXKy5zH+0nEnyzpOqyDBDBgNVHSMEPDA6gBQooZCyi+LW
rFpU9QBTLkRbxBVteaEXpBUwEzERMA8GA1UEAwwIQ2hhbmdlTWWCCQD4A2oh47CH
mTATBgNVHSUEDDAKBggrBgEFBQcDAjALBgNVHQ8EBAMCB4AwDQYJKoZIhvcNAQEL
BQADggEBABsTzSts3kVjc2Topc60eWmMFq2oe0yKuE9TlyRl25Fsz0YGK16O8xOe
8M6FWq9+Zm1EOJuTG9HQPgjljLvYKCCESSWyDJQCjUFfTbPUKAjXbemeZoqwehl3
d2a2bTiREkcg2fbgLG1HGvX3fi5MLSvWM6E6pQkrfUSGT264Ow+uLmvNnWBG4lO2
zbAhDRclCopAoibfkxL2NXy7S10Z3RyA3VujXjE0wU8WHxCTzlpUOj2i9NyHdbPU
5opcxIXowFm9+bCNSMNF7fKjz+54RdE3D4nbOrsOsnGya8uHEdd6GFKgkBov33V8
9WKipu4+MU62tIfAc1laxh2EZQ1bfqM=
-----END CERTIFICATE-----
